; Function Attrs: mustprogress uwtable
define dso_local void @_ZN6google8protobuf20ConformanceTestSuite18WireFormatToStringB5cxx11EN11conformance10WireFormatE(ptr noalias sret(%"class.std::__cxx11::basic_string") align 8 %agg.result, ptr nocapture noundef nonnull readnone align 8 dereferenceable(400) %this, i32 noundef %wire_format) local_unnamed_addr #3 align 2 personality ptr @__gxx_personality_v0 {
entry:
  %ref.tmp = alloca %"class.std::allocator", align 1
  %ref.tmp3 = alloca %"class.std::allocator", align 1
  %ref.tmp7 = alloca %"class.std::allocator", align 1
  %ref.tmp11 = alloca %"class.std::allocator", align 1
  %ref.tmp15 = alloca %"class.std::allocator", align 1
  %ref.tmp18 = alloca %"class.google::protobuf::internal::LogMessage", align 8
  %ref.tmp23 = alloca %"class.google::protobuf::internal::LogFinisher", align 1
  %ref.tmp25 = alloca %"class.std::allocator", align 1
  switch i32 %wire_format, label %sw.default [
    i32 1, label %sw.bb
    i32 2, label %sw.bb2
    i32 3, label %sw.bb6
    i32 4, label %sw.bb10
    i32 0, label %sw.bb14
  ]

sw.bb:                                            ; preds = %entry
  call void @_ZNSaIcEC1Ev(ptr noundef nonnull align 1 dereferenceable(1) %ref.tmp) #18
  invoke void @_ZNSt7__cxx1112basic_stringIcSt11char_traitsIcESaIcEEC2IS3_EEPKcRKS3_(ptr noundef nonnull align 8 dereferenceable(32) %agg.result, ptr noundef nonnull @.str.40, ptr noundef nonnull align 1 dereferenceable(1) %ref.tmp)
          to label %return unwind label %lpad

lpad:                                             ; preds = %sw.bb
  %0 = landingpad { ptr, i32 }
          cleanup
  call void @_ZNSaIcED1Ev(ptr noundef nonnull align 1 dereferenceable(1) %ref.tmp) #18
  br label %eh.resume

sw.bb2:                                           ; preds = %entry
  call void @_ZNSaIcEC1Ev(ptr noundef nonnull align 1 dereferenceable(1) %ref.tmp3) #18
  invoke void @_ZNSt7__cxx1112basic_stringIcSt11char_traitsIcESaIcEEC2IS3_EEPKcRKS3_(ptr noundef nonnull align 8 dereferenceable(32) %agg.result, ptr noundef nonnull @.str.41, ptr noundef nonnull align 1 dereferenceable(1) %ref.tmp3)
          to label %return unwind label %lpad4

lpad4:                                            ; preds = %sw.bb2
  %1 = landingpad { ptr, i32 }
          cleanup
  call void @_ZNSaIcED1Ev(ptr noundef nonnull align 1 dereferenceable(1) %ref.tmp3) #18
  br label %eh.resume

sw.bb6:                                           ; preds = %entry
  call void @_ZNSaIcEC1Ev(ptr noundef nonnull align 1 dereferenceable(1) %ref.tmp7) #18
  invoke void @_ZNSt7__cxx1112basic_stringIcSt11char_traitsIcESaIcEEC2IS3_EEPKcRKS3_(ptr noundef nonnull align 8 dereferenceable(32) %agg.result, ptr noundef nonnull @.str.42, ptr noundef nonnull align 1 dereferenceable(1) %ref.tmp7)
          to label %return unwind label %lpad8

lpad8:                                            ; preds = %sw.bb6
  %2 = landingpad { ptr, i32 }
          cleanup
  call void @_ZNSaIcED1Ev(ptr noundef nonnull align 1 dereferenceable(1) %ref.tmp7) #18
  br label %eh.resume

sw.bb10:                                          ; preds = %entry
  call void @_ZNSaIcEC1Ev(ptr noundef nonnull align 1 dereferenceable(1) %ref.tmp11) #18
  invoke void @_ZNSt7__cxx1112basic_stringIcSt11char_traitsIcESaIcEEC2IS3_EEPKcRKS3_(ptr noundef nonnull align 8 dereferenceable(32) %agg.result, ptr noundef nonnull @.str.43, ptr noundef nonnull align 1 dereferenceable(1) %ref.tmp11)
          to label %return unwind label %lpad12

lpad12:                                           ; preds = %sw.bb10
  %3 = landingpad { ptr, i32 }
          cleanup
  call void @_ZNSaIcED1Ev(ptr noundef nonnull align 1 dereferenceable(1) %ref.tmp11) #18
  br label %eh.resume

sw.bb14:                                          ; preds = %entry
  call void @_ZNSaIcEC1Ev(ptr noundef nonnull align 1 dereferenceable(1) %ref.tmp15) #18
  invoke void @_ZNSt7__cxx1112basic_stringIcSt11char_traitsIcESaIcEEC2IS3_EEPKcRKS3_(ptr noundef nonnull align 8 dereferenceable(32) %agg.result, ptr noundef nonnull @.str.44, ptr noundef nonnull align 1 dereferenceable(1) %ref.tmp15)
          to label %return unwind label %lpad16

lpad16:                                           ; preds = %sw.bb14
  %4 = landingpad { ptr, i32 }
          cleanup
  call void @_ZNSaIcED1Ev(ptr noundef nonnull align 1 dereferenceable(1) %ref.tmp15) #18
  br label %eh.resume

sw.default:                                       ; preds = %entry
  call void @_ZN6google8protobuf8internal10LogMessageC1ENS0_8LogLevelEPKci(ptr noundef nonnull align 8 dereferenceable(56) %ref.tmp18, i32 noundef 3, ptr noundef nonnull @.str, i32 noundef 449)
  %call = invoke noundef nonnull align 8 dereferenceable(56) ptr @_ZN6google8protobuf8internal10LogMessagelsEPKc(ptr noundef nonnull align 8 dereferenceable(56) %ref.tmp18, ptr noundef nonnull @.str.45)
          to label %invoke.cont20 unwind label %lpad19

invoke.cont20:                                    ; preds = %sw.default
  %call22 = invoke noundef nonnull align 8 dereferenceable(56) ptr @_ZN6google8protobuf8internal10LogMessagelsEi(ptr noundef nonnull align 8 dereferenceable(56) %call, i32 noundef %wire_format)
          to label %invoke.cont21 unwind label %lpad19

invoke.cont21:                                    ; preds = %invoke.cont20
  invoke void @_ZN6google8protobuf8internal11LogFinisheraSERNS1_10LogMessageE(ptr noundef nonnull align 1 dereferenceable(1) %ref.tmp23, ptr noundef nonnull align 8 dereferenceable(56) %call22)
          to label %invoke.cont24 unwind label %lpad19

invoke.cont24:                                    ; preds = %invoke.cont21
  call void @_ZN6google8protobuf8internal10LogMessageD1Ev(ptr noundef nonnull align 8 dereferenceable(56) %ref.tmp18) #18
  call void @_ZNSaIcEC1Ev(ptr noundef nonnull align 1 dereferenceable(1) %ref.tmp25) #18
  invoke void @_ZNSt7__cxx1112basic_stringIcSt11char_traitsIcESaIcEEC2IS3_EEPKcRKS3_(ptr noundef nonnull align 8 dereferenceable(32) %agg.result, ptr noundef nonnull @.str.8, ptr noundef nonnull align 1 dereferenceable(1) %ref.tmp25)
          to label %return unwind label %lpad26

lpad19:                                           ; preds = %invoke.cont21, %invoke.cont20, %sw.default
  %5 = landingpad { ptr, i32 }
          cleanup
  call void @_ZN6google8protobuf8internal10LogMessageD1Ev(ptr noundef nonnull align 8 dereferenceable(56) %ref.tmp18) #18
  br label %eh.resume

lpad26:                                           ; preds = %invoke.cont24
  %6 = landingpad { ptr, i32 }
          cleanup
  call void @_ZNSaIcED1Ev(ptr noundef nonnull align 1 dereferenceable(1) %ref.tmp25) #18
  br label %eh.resume

return:                                           ; preds = %invoke.cont24, %sw.bb14, %sw.bb10, %sw.bb6, %sw.bb2, %sw.bb
  %ref.tmp25.sink = phi ptr [ %ref.tmp, %sw.bb ], [ %ref.tmp3, %sw.bb2 ], [ %ref.tmp7, %sw.bb6 ], [ %ref.tmp11, %sw.bb10 ], [ %ref.tmp15, %sw.bb14 ], [ %ref.tmp25, %invoke.cont24 ]
  call void @_ZNSaIcED1Ev(ptr noundef nonnull align 1 dereferenceable(1) %ref.tmp25.sink) #18
  ret void

eh.resume:                                        ; preds = %lpad26, %lpad19, %lpad16, %lpad12, %lpad8, %lpad4, %lpad
  %.pn = phi { ptr, i32 } [ %6, %lpad26 ], [ %5, %lpad19 ], [ %4, %lpad16 ], [ %3, %lpad12 ], [ %2, %lpad8 ], [ %1, %lpad4 ], [ %0, %lpad ]
  resume { ptr, i32 } %.pn
}